; Function Attrs: mustprogress nofree norecurse nosync nounwind memory(write, argmem: readwrite, inaccessiblemem: none) uwtable
define void @_Z21clear_dd_cycle_countsP12gmx_domdec_t(ptr nocapture noundef readonly %0) local_unnamed_addr #9 {
  %2 = getelementptr inbounds i8, ptr %0, i64 320
  br label %3

3:                                                ; preds = %1, %3
  %indvars.iv = phi i64 [ 0, %1 ], [ %indvars.iv.next, %3 ]
  %4 = load ptr, ptr %2, align 8
  %5 = getelementptr inbounds i8, ptr %4, i64 2136
  %6 = getelementptr inbounds [5 x float], ptr %5, i64 0, i64 %indvars.iv
  store float 0.000000e+00, ptr %6, align 4
  %7 = load ptr, ptr %2, align 8
  %8 = getelementptr inbounds i8, ptr %7, i64 2156
  %9 = getelementptr inbounds [5 x i32], ptr %8, i64 0, i64 %indvars.iv
  store i32 0, ptr %9, align 4
  %10 = load ptr, ptr %2, align 8
  %11 = getelementptr inbounds i8, ptr %10, i64 2176
  %12 = getelementptr inbounds [5 x float], ptr %11, i64 0, i64 %indvars.iv
  store float 0.000000e+00, ptr %12, align 4
  %indvars.iv.next = add nuw nsw i64 %indvars.iv, 1
  %exitcond.not = icmp eq i64 %indvars.iv.next, 5
  br i1 %exitcond.not, label %13, label %3, !llvm.loop !13

13:                                               ; preds = %3
  %14 = load ptr, ptr %2, align 8
  %15 = getelementptr inbounds i8, ptr %14, i64 2200
  store double 0.000000e+00, ptr %15, align 8
  %16 = load ptr, ptr %2, align 8
  %17 = getelementptr inbounds i8, ptr %16, i64 2208
  store i32 0, ptr %17, align 8
  ret void
}